target datalayout = "e-m:e-p270:32:32-p271:32:32-p272:64:64-i64:64-i128:128-f80:128-n8:16:32:64-S128"
target triple = "x86_64-pc-linux-gnu"

%struct._zend_jit_globals = type { i8, i8, i8, i8, i32, ptr, i64, i64, i64, double, i64, i64, i64, i64, i64, i64, i64, i64, i64, i64, i64, i64, i64, i64, ptr, i8, ptr, ptr, [64 x ptr], [64 x i8], [64 x i8], i32, ptr }
%struct._zend_compiler_globals = type { %struct._zend_stack, ptr, ptr, i32, ptr, ptr, ptr, ptr, i8, i8, i8, i8, i8, %struct._zend_llist, ptr, i8, i8, i8, i8, ptr, i32, i32, %struct._zend_oparray_context, %struct._zend_file_context, ptr, %struct._zend_array, ptr, i64, i8, i8, i8, ptr, ptr, %struct._zend_stack, ptr, i32, ptr, ptr, i64, i64, ptr, ptr, ptr, ptr, i32, %struct._zend_stack }
%struct._zend_llist = type { ptr, ptr, i64, i64, ptr, i8, ptr }
%struct._zend_oparray_context = type { i32, i32, i32, i32, i32, i32, i32, ptr, ptr, i8 }
%struct._zend_file_context = type { %struct._zend_declarables, ptr, i8, i8, ptr, ptr, ptr, %struct._zend_array }
%struct._zend_declarables = type { i64 }
%struct._zend_array = type { %struct._zend_refcounted_h, %union.anon.17, i32, %union.anon.19, i32, i32, i32, i32, i64, ptr }
%struct._zend_refcounted_h = type { i32, %union.anon.16 }
%union.anon.16 = type { i32 }
%union.anon.17 = type { i32 }
%union.anon.19 = type { ptr }
%struct._zend_stack = type { i32, i32, i32, ptr }
%struct._zend_op_array = type { i8, [3 x i8], i32, ptr, ptr, ptr, i32, i32, ptr, ptr, ptr, ptr, i32, i32, i32, i32, ptr, ptr, ptr, ptr, ptr, i32, i32, ptr, ptr, ptr, i32, i32, i32, i32, ptr, ptr, [6 x ptr] }
%struct._zend_op = type { ptr, %union._znode_op, %union._znode_op, %union._znode_op, i32, i32, i8, i8, i8, i8 }
%union._znode_op = type { i32 }
%struct._zend_func_info = type { i32, i32, %struct._zend_ssa, ptr, ptr, ptr, %struct._zend_ssa_var_info }
%struct._zend_ssa = type { %struct._zend_cfg, i32, i32, ptr, ptr, ptr, ptr }
%struct._zend_cfg = type { i32, i32, ptr, ptr, ptr, i32 }
%struct._zend_ssa_var_info = type { i32, i8, %struct._zend_ssa_range, ptr }
%struct._zend_ssa_range = type { i64, i64, i8, i8 }
%struct._zend_arena = type { ptr, ptr, ptr }
%struct._zend_jit_op_array_trace_extension = type { %struct._zend_func_info, ptr, i64, [1 x %union._zend_op_trace_info] }
%union._zend_op_trace_info = type { %struct._zend_op }

@jit_globals = hidden global %struct._zend_jit_globals zeroinitializer, align 8
@compiler_globals = external global %struct._zend_compiler_globals, align 8
@zend_func_info_rid = external global i32, align 4
@.str.23 = private unnamed_addr constant [4 x i8] c"JIT\00", align 1

; Function Attrs: nounwind uwtable
define internal i32 @zend_jit_build_cfg(ptr noundef %0, ptr noundef %1) #0 {
  %3 = alloca i32, align 4
  %4 = alloca ptr, align 8
  %5 = alloca ptr, align 8
  %6 = alloca i32, align 4
  store ptr %0, ptr %4, align 8
  store ptr %1, ptr %5, align 8
  store i32 1262485504, ptr %6, align 4
  %7 = load ptr, ptr %4, align 8
  %8 = load i32, ptr %6, align 4
  %9 = load ptr, ptr %5, align 8
  call void @zend_build_cfg(ptr noundef getelementptr inbounds (%struct._zend_compiler_globals, ptr @compiler_globals, i32 0, i32 24), ptr noundef %7, i32 noundef %8, ptr noundef %9)
  %10 = load ptr, ptr %5, align 8
  %11 = getelementptr inbounds %struct._zend_cfg, ptr %10, i32 0, i32 0
  %12 = load i32, ptr %11, align 8
  %13 = icmp sgt i32 %12, 100000
  br i1 %13, label %14, label %15

14:                                               ; preds = %2
  store i32 -1, ptr %3, align 4
  br label %21

15:                                               ; preds = %2
  %16 = load ptr, ptr %5, align 8
  call void @zend_cfg_build_predecessors(ptr noundef getelementptr inbounds (%struct._zend_compiler_globals, ptr @compiler_globals, i32 0, i32 24), ptr noundef %16)
  %17 = load ptr, ptr %4, align 8
  %18 = load ptr, ptr %5, align 8
  call void @zend_cfg_compute_dominators_tree(ptr noundef %17, ptr noundef %18)
  %19 = load ptr, ptr %4, align 8
  %20 = load ptr, ptr %5, align 8
  call void @zend_cfg_identify_loops(ptr noundef %19, ptr noundef %20)
  store i32 0, ptr %3, align 4
  br label %21

21:                                               ; preds = %15, %14
  %22 = load i32, ptr %3, align 4
  ret i32 %22
}

; Function Attrs: nounwind uwtable
define internal i32 @zend_jit_op_array_analyze2(ptr noundef %0, ptr noundef %1, ptr noundef %2, i32 noundef %3) #0 {
  %5 = alloca i32, align 4
  %6 = alloca ptr, align 8
  %7 = alloca ptr, align 8
  %8 = alloca ptr, align 8
  %9 = alloca i32, align 4
  store ptr %0, ptr %6, align 8
  store ptr %1, ptr %7, align 8
  store ptr %2, ptr %8, align 8
  store i32 %3, ptr %9, align 4
  %10 = load i8, ptr getelementptr inbounds (%struct._zend_jit_globals, ptr @jit_globals, i32 0, i32 3), align 1
  %11 = zext i8 %10 to i32
  %12 = icmp sge i32 %11, 3
  br i1 %12, label %13, label %48

13:                                               ; preds = %4
  %14 = load ptr, ptr %8, align 8
  %15 = getelementptr inbounds %struct._zend_ssa, ptr %14, i32 0, i32 0
  %16 = getelementptr inbounds %struct._zend_cfg, ptr %15, i32 0, i32 2
  %17 = load ptr, ptr %16, align 8
  %18 = icmp ne ptr %17, null
  br i1 %18, label %19, label %48

19:                                               ; preds = %13
  %20 = load ptr, ptr %6, align 8
  %21 = getelementptr inbounds %struct._zend_op_array, ptr %20, i32 0, i32 22
  %22 = load i32, ptr %21, align 4
  %23 = icmp eq i32 %22, 0
  br i1 %23, label %24, label %48

24:                                               ; preds = %19
  %25 = load ptr, ptr %6, align 8
  %26 = getelementptr inbounds %struct._zend_op_array, ptr %25, i32 0, i32 2
  %27 = load i32, ptr %26, align 4
  %28 = and i32 %27, 16777216
  %29 = icmp ne i32 %28, 0
  br i1 %29, label %48, label %30

30:                                               ; preds = %24
  %31 = load ptr, ptr %8, align 8
  %32 = getelementptr inbounds %struct._zend_ssa, ptr %31, i32 0, i32 0
  %33 = getelementptr inbounds %struct._zend_cfg, ptr %32, i32 0, i32 5
  %34 = load i32, ptr %33, align 8
  %35 = and i32 %34, 1
  %36 = icmp ne i32 %35, 0
  br i1 %36, label %48, label %37

37:                                               ; preds = %30
  %38 = load ptr, ptr %6, align 8
  %39 = load ptr, ptr %7, align 8
  %40 = load ptr, ptr %8, align 8
  %41 = load i32, ptr %9, align 4
  %42 = and i32 %41, -131073
  %43 = zext i32 %42 to i64
  %44 = call i32 @zend_ssa_inference(ptr noundef getelementptr inbounds (%struct._zend_compiler_globals, ptr @compiler_globals, i32 0, i32 24), ptr noundef %38, ptr noundef %39, ptr noundef %40, i64 noundef %43)
  %45 = icmp ne i32 %44, 0
  br i1 %45, label %46, label %47

46:                                               ; preds = %37
  store i32 -1, ptr %5, align 4
  br label %49

47:                                               ; preds = %37
  br label %48

48:                                               ; preds = %47, %30, %24, %19, %13, %4
  store i32 0, ptr %5, align 4
  br label %49

49:                                               ; preds = %48, %46
  %50 = load i32, ptr %5, align 4
  ret i32 %50
}

; Function Attrs: nounwind uwtable
define internal ptr @zend_jit_trace_build_ssa(ptr noundef %0, ptr noundef %1) #0 {
  %3 = alloca ptr, align 8
  %4 = alloca ptr, align 8
  %5 = alloca ptr, align 8
  %6 = alloca ptr, align 8
  %7 = alloca ptr, align 8
  %8 = alloca ptr, align 8
  %9 = alloca ptr, align 8
  %10 = alloca ptr, align 8
  %11 = alloca ptr, align 8
  %12 = alloca ptr, align 8
  %13 = alloca %struct._zend_cfg, align 8
  %14 = alloca ptr, align 8
  store ptr %0, ptr %9, align 8
  store ptr %1, ptr %10, align 8
  %15 = load ptr, ptr %9, align 8
  %16 = getelementptr inbounds %struct._zend_op_array, ptr %15, i32 0, i32 32
  %17 = load i32, ptr @zend_func_info_rid, align 4
  %18 = sext i32 %17 to i64
  %19 = getelementptr inbounds [6 x ptr], ptr %16, i64 0, i64 %18
  %20 = load ptr, ptr %19, align 8
  store ptr %20, ptr %11, align 8
  %21 = load ptr, ptr %11, align 8
  %22 = getelementptr inbounds %struct._zend_jit_op_array_trace_extension, ptr %21, i32 0, i32 0
  %23 = getelementptr inbounds %struct._zend_func_info, ptr %22, i32 0, i32 0
  store i32 0, ptr %23, align 8
  %24 = load ptr, ptr %11, align 8
  %25 = getelementptr inbounds %struct._zend_jit_op_array_trace_extension, ptr %24, i32 0, i32 0
  %26 = getelementptr inbounds %struct._zend_func_info, ptr %25, i32 0, i32 1
  %27 = load i32, ptr %26, align 4
  %28 = and i32 %27, 122880
  store i32 %28, ptr %26, align 4
  %29 = load ptr, ptr %11, align 8
  %30 = getelementptr inbounds %struct._zend_jit_op_array_trace_extension, ptr %29, i32 0, i32 0
  %31 = getelementptr inbounds %struct._zend_func_info, ptr %30, i32 0, i32 2
  call void @llvm.memset.p0.i64(ptr align 8 %31, i8 0, i64 144, i1 false)
  %32 = load ptr, ptr %11, align 8
  %33 = getelementptr inbounds %struct._zend_jit_op_array_trace_extension, ptr %32, i32 0, i32 0
  %34 = getelementptr inbounds %struct._zend_func_info, ptr %33, i32 0, i32 2
  store ptr %34, ptr %12, align 8
  %35 = load i8, ptr getelementptr inbounds (%struct._zend_jit_globals, ptr @jit_globals, i32 0, i32 3), align 1
  %36 = zext i8 %35 to i32
  %37 = icmp sge i32 %36, 3
  br i1 %37, label %38, label %91

38:                                               ; preds = %2
  br label %39

39:                                               ; preds = %38
  %40 = load ptr, ptr %9, align 8
  %41 = load ptr, ptr %10, align 8
  %42 = load ptr, ptr %12, align 8
  %43 = call i32 @zend_jit_op_array_analyze1(ptr noundef %40, ptr noundef %41, ptr noundef %42)
  %44 = icmp ne i32 %43, 0
  br i1 %44, label %45, label %46

45:                                               ; preds = %39
  br label %90

46:                                               ; preds = %39
  %47 = load i8, ptr getelementptr inbounds (%struct._zend_jit_globals, ptr @jit_globals, i32 0, i32 3), align 1
  %48 = zext i8 %47 to i32
  %49 = icmp sge i32 %48, 4
  br i1 %49, label %50, label %74

50:                                               ; preds = %46
  %51 = load ptr, ptr %10, align 8
  %52 = load ptr, ptr %9, align 8
  %53 = load ptr, ptr %11, align 8
  %54 = getelementptr inbounds %struct._zend_jit_op_array_trace_extension, ptr %53, i32 0, i32 0
  call void @zend_analyze_calls(ptr noundef getelementptr inbounds (%struct._zend_compiler_globals, ptr @compiler_globals, i32 0, i32 24), ptr noundef %51, i32 noundef 8388608, ptr noundef %52, ptr noundef %54)
  %55 = load ptr, ptr %11, align 8
  %56 = getelementptr inbounds %struct._zend_jit_op_array_trace_extension, ptr %55, i32 0, i32 0
  %57 = load ptr, ptr %9, align 8
  %58 = call ptr @zend_build_call_map(ptr noundef getelementptr inbounds (%struct._zend_compiler_globals, ptr @compiler_globals, i32 0, i32 24), ptr noundef %56, ptr noundef %57)
  %59 = load ptr, ptr %11, align 8
  %60 = getelementptr inbounds %struct._zend_jit_op_array_trace_extension, ptr %59, i32 0, i32 0
  %61 = getelementptr inbounds %struct._zend_func_info, ptr %60, i32 0, i32 5
  store ptr %58, ptr %61, align 8
  %62 = load ptr, ptr %9, align 8
  %63 = getelementptr inbounds %struct._zend_op_array, ptr %62, i32 0, i32 2
  %64 = load i32, ptr %63, align 4
  %65 = and i32 %64, 8192
  %66 = icmp ne i32 %65, 0
  br i1 %66, label %67, label %73

67:                                               ; preds = %50
  %68 = load ptr, ptr %9, align 8
  %69 = load ptr, ptr %10, align 8
  %70 = load ptr, ptr %11, align 8
  %71 = getelementptr inbounds %struct._zend_jit_op_array_trace_extension, ptr %70, i32 0, i32 0
  %72 = getelementptr inbounds %struct._zend_func_info, ptr %71, i32 0, i32 6
  call void @zend_init_func_return_info(ptr noundef %68, ptr noundef %69, ptr noundef %72)
  br label %73

73:                                               ; preds = %67, %50
  br label %74

74:                                               ; preds = %73, %46
  %75 = load ptr, ptr %9, align 8
  %76 = load ptr, ptr %10, align 8
  %77 = load ptr, ptr %12, align 8
  %78 = call i32 @zend_jit_op_array_analyze2(ptr noundef %75, ptr noundef %76, ptr noundef %77, i32 noundef 0)
  %79 = icmp ne i32 %78, 0
  br i1 %79, label %80, label %81

80:                                               ; preds = %74
  br label %90

81:                                               ; preds = %74
  %82 = load i64, ptr getelementptr inbounds (%struct._zend_jit_globals, ptr @jit_globals, i32 0, i32 7), align 8
  %83 = and i64 %82, 2
  %84 = icmp ne i64 %83, 0
  br i1 %84, label %85, label %88

85:                                               ; preds = %81
  %86 = load ptr, ptr %9, align 8
  %87 = load ptr, ptr %12, align 8
  call void @zend_dump_op_array(ptr noundef %86, i32 noundef 11, ptr noundef @.str.23, ptr noundef %87)
  br label %88

88:                                               ; preds = %85, %81
  %89 = load ptr, ptr %12, align 8
  store ptr %89, ptr %8, align 8
  br label %168

90:                                               ; preds = %80, %45
  br label %91

91:                                               ; preds = %90, %2
  %92 = load ptr, ptr %12, align 8
  call void @llvm.memset.p0.i64(ptr align 8 %92, i8 0, i64 80, i1 false)
  %93 = load ptr, ptr %12, align 8
  %94 = getelementptr inbounds %struct._zend_ssa, ptr %93, i32 0, i32 0
  %95 = getelementptr inbounds %struct._zend_cfg, ptr %94, i32 0, i32 0
  store i32 1, ptr %95, align 8
  %96 = load i8, ptr getelementptr inbounds (%struct._zend_jit_globals, ptr @jit_globals, i32 0, i32 3), align 1
  %97 = zext i8 %96 to i32
  %98 = icmp eq i32 %97, 2
  br i1 %98, label %99, label %166

99:                                               ; preds = %91
  %100 = load ptr, ptr getelementptr inbounds (%struct._zend_compiler_globals, ptr @compiler_globals, i32 0, i32 24), align 8
  store ptr %100, ptr %7, align 8
  %101 = load ptr, ptr %7, align 8
  %102 = load ptr, ptr %101, align 8
  store ptr %102, ptr %14, align 8
  %103 = load ptr, ptr %9, align 8
  %104 = call i32 @zend_jit_build_cfg(ptr noundef %103, ptr noundef %13)
  %105 = icmp eq i32 %104, 0
  br i1 %105, label %106, label %112

106:                                              ; preds = %99
  %107 = getelementptr inbounds %struct._zend_cfg, ptr %13, i32 0, i32 5
  %108 = load i32, ptr %107, align 8
  %109 = load ptr, ptr %12, align 8
  %110 = getelementptr inbounds %struct._zend_ssa, ptr %109, i32 0, i32 0
  %111 = getelementptr inbounds %struct._zend_cfg, ptr %110, i32 0, i32 5
  store i32 %108, ptr %111, align 8
  br label %118

112:                                              ; preds = %99
  %113 = load ptr, ptr %12, align 8
  %114 = getelementptr inbounds %struct._zend_ssa, ptr %113, i32 0, i32 0
  %115 = getelementptr inbounds %struct._zend_cfg, ptr %114, i32 0, i32 5
  %116 = load i32, ptr %115, align 8
  %117 = or i32 %116, 1
  store i32 %117, ptr %115, align 8
  br label %118

118:                                              ; preds = %112, %106
  %119 = load ptr, ptr %9, align 8
  %120 = getelementptr inbounds %struct._zend_op_array, ptr %119, i32 0, i32 3
  %121 = load ptr, ptr %120, align 8
  %122 = icmp ne ptr %121, null
  br i1 %122, label %129, label %123

123:                                              ; preds = %118
  %124 = load ptr, ptr %12, align 8
  %125 = getelementptr inbounds %struct._zend_ssa, ptr %124, i32 0, i32 0
  %126 = getelementptr inbounds %struct._zend_cfg, ptr %125, i32 0, i32 5
  %127 = load i32, ptr %126, align 8
  %128 = or i32 %127, 1
  store i32 %128, ptr %126, align 8
  br label %129

129:                                              ; preds = %123, %118
  %130 = load ptr, ptr %14, align 8
  store ptr getelementptr inbounds (%struct._zend_compiler_globals, ptr @compiler_globals, i32 0, i32 24), ptr %3, align 8
  store ptr %130, ptr %4, align 8
  %131 = load ptr, ptr %3, align 8
  %132 = load ptr, ptr %131, align 8
  store ptr %132, ptr %5, align 8
  br label %133

133:                                              ; preds = %145, %129
  %134 = load ptr, ptr %4, align 8
  %135 = load ptr, ptr %5, align 8
  %136 = getelementptr inbounds %struct._zend_arena, ptr %135, i32 0, i32 1
  %137 = load ptr, ptr %136, align 8
  %138 = icmp ugt ptr %134, %137
  br i1 %138, label %143, label %139

139:                                              ; preds = %133
  %140 = load ptr, ptr %4, align 8
  %141 = load ptr, ptr %5, align 8
  %142 = icmp ule ptr %140, %141
  br label %143

143:                                              ; preds = %139, %133
  %144 = phi i1 [ true, %133 ], [ %142, %139 ]
  br i1 %144, label %145, label %152

145:                                              ; preds = %143
  %146 = load ptr, ptr %5, align 8
  %147 = getelementptr inbounds %struct._zend_arena, ptr %146, i32 0, i32 2
  %148 = load ptr, ptr %147, align 8
  store ptr %148, ptr %6, align 8
  %149 = load ptr, ptr %5, align 8
  call void @_efree(ptr noundef %149) #17
  %150 = load ptr, ptr %6, align 8
  store ptr %150, ptr %5, align 8
  %151 = load ptr, ptr %3, align 8
  store ptr %150, ptr %151, align 8
  br label %133

152:                                              ; preds = %143
  %153 = load ptr, ptr %4, align 8
  %154 = load ptr, ptr %5, align 8
  %155 = icmp ugt ptr %153, %154
  br i1 %155, label %156, label %162

156:                                              ; preds = %152
  %157 = load ptr, ptr %4, align 8
  %158 = load ptr, ptr %5, align 8
  %159 = getelementptr inbounds %struct._zend_arena, ptr %158, i32 0, i32 1
  %160 = load ptr, ptr %159, align 8
  %161 = icmp ule ptr %157, %160
  br label %162

162:                                              ; preds = %156, %152
  %163 = phi i1 [ false, %152 ], [ %161, %156 ]
  call void @llvm.assume(i1 %163)
  %164 = load ptr, ptr %4, align 8
  %165 = load ptr, ptr %5, align 8
  store ptr %164, ptr %165, align 8
  br label %166

166:                                              ; preds = %162, %91
  %167 = load ptr, ptr %12, align 8
  store ptr %167, ptr %8, align 8
  br label %168

168:                                              ; preds = %166, %88
  %169 = load ptr, ptr %8, align 8
  ret ptr %169
}