; Function Attrs: nounwind uwtable
define internal fastcc noundef nonnull ptr @zend_jit_trace_build_ssa(ptr noundef %0) unnamed_addr #0 {
  %2 = alloca %struct._zend_cfg, align 8
  %3 = getelementptr inbounds i8, ptr %0, i64 192
  %4 = load i32, ptr @zend_func_info_rid, align 4
  %5 = sext i32 %4 to i64
  %6 = getelementptr inbounds [6 x ptr], ptr %3, i64 0, i64 %5
  %7 = load ptr, ptr %6, align 8
  store i32 0, ptr %7, align 8
  %8 = getelementptr inbounds i8, ptr %7, i64 4
  %9 = load i32, ptr %8, align 4
  %10 = and i32 %9, 122880
  store i32 %10, ptr %8, align 4
  %11 = getelementptr inbounds i8, ptr %7, i64 8
  tail call void @llvm.memset.p0.i64(ptr noundef nonnull align 8 dereferenceable(144) %11, i8 0, i64 144, i1 false)
  %12 = load i8, ptr getelementptr inbounds (%struct._zend_jit_globals, ptr @jit_globals, i64 0, i32 3), align 1
  %13 = icmp ugt i8 %12, 2
  br i1 %13, label %14, label %zend_jit_op_array_analyze2.exit

14:                                               ; preds = %1
  %15 = tail call fastcc i32 @zend_jit_op_array_analyze1(ptr noundef nonnull %0, ptr noundef null, ptr noundef nonnull %11), !range !4
  %.not = icmp eq i32 %15, 0
  br i1 %.not, label %16, label %zend_jit_op_array_analyze2.exitthread-pre-split

16:                                               ; preds = %14
  %17 = load i8, ptr getelementptr inbounds (%struct._zend_jit_globals, ptr @jit_globals, i64 0, i32 3), align 1
  %18 = icmp ugt i8 %17, 3
  br i1 %18, label %19, label %27

19:                                               ; preds = %16
  tail call void @zend_analyze_calls(ptr noundef nonnull getelementptr inbounds (%struct._zend_compiler_globals, ptr @compiler_globals, i64 0, i32 24), ptr noundef null, i32 noundef 8388608, ptr noundef nonnull %0, ptr noundef nonnull %7) #32
  %20 = tail call ptr @zend_build_call_map(ptr noundef nonnull getelementptr inbounds (%struct._zend_compiler_globals, ptr @compiler_globals, i64 0, i32 24), ptr noundef nonnull %7, ptr noundef nonnull %0) #32
  %21 = getelementptr inbounds i8, ptr %7, i64 104
  store ptr %20, ptr %21, align 8
  %22 = getelementptr inbounds i8, ptr %0, i64 4
  %23 = load i32, ptr %22, align 4
  %24 = and i32 %23, 8192
  %.not53 = icmp eq i32 %24, 0
  br i1 %.not53, label %thread-pre-split, label %25

25:                                               ; preds = %19
  %26 = getelementptr inbounds i8, ptr %7, i64 112
  tail call void @zend_init_func_return_info(ptr noundef nonnull %0, ptr noundef null, ptr noundef nonnull %26) #32
  br label %thread-pre-split

thread-pre-split:                                 ; preds = %25, %19
  %.pr = load i8, ptr getelementptr inbounds (%struct._zend_jit_globals, ptr @jit_globals, i64 0, i32 3), align 1
  br label %27

27:                                               ; preds = %thread-pre-split, %16
  %28 = phi i8 [ %.pr, %thread-pre-split ], [ %17, %16 ]
  %29 = icmp ugt i8 %28, 2
  br i1 %29, label %30, label %47

30:                                               ; preds = %27
  %31 = getelementptr inbounds i8, ptr %7, i64 16
  %32 = load ptr, ptr %31, align 8
  %.not.i = icmp eq ptr %32, null
  br i1 %.not.i, label %47, label %33

33:                                               ; preds = %30
  %34 = getelementptr inbounds i8, ptr %0, i64 132
  %35 = load i32, ptr %34, align 4
  %36 = icmp eq i32 %35, 0
  br i1 %36, label %37, label %47

37:                                               ; preds = %33
  %38 = getelementptr inbounds i8, ptr %0, i64 4
  %39 = load i32, ptr %38, align 4
  %40 = and i32 %39, 16777216
  %.not8.i = icmp eq i32 %40, 0
  br i1 %.not8.i, label %41, label %47

41:                                               ; preds = %37
  %42 = getelementptr inbounds i8, ptr %7, i64 40
  %43 = load i32, ptr %42, align 8
  %44 = and i32 %43, 1
  %.not9.i = icmp eq i32 %44, 0
  br i1 %.not9.i, label %45, label %47

45:                                               ; preds = %41
  %46 = tail call i32 @zend_ssa_inference(ptr noundef nonnull getelementptr inbounds (%struct._zend_compiler_globals, ptr @compiler_globals, i64 0, i32 24), ptr noundef nonnull %0, ptr noundef null, ptr noundef nonnull %11, i64 noundef 0) #32
  %.not10.i = icmp eq i32 %46, 0
  br i1 %.not10.i, label %47, label %zend_jit_op_array_analyze2.exitthread-pre-split

47:                                               ; preds = %27, %30, %33, %37, %41, %45
  %48 = load i64, ptr getelementptr inbounds (%struct._zend_jit_globals, ptr @jit_globals, i64 0, i32 7), align 8
  %49 = and i64 %48, 2
  %.not55 = icmp eq i64 %49, 0
  br i1 %.not55, label %86, label %50

50:                                               ; preds = %47
  tail call void @zend_dump_op_array(ptr noundef nonnull %0, i32 noundef 11, ptr noundef nonnull @.str.23, ptr noundef nonnull %11) #32
  br label %86

zend_jit_op_array_analyze2.exitthread-pre-split:  ; preds = %14, %45
  %.pr3 = load i8, ptr getelementptr inbounds (%struct._zend_jit_globals, ptr @jit_globals, i64 0, i32 3), align 1
  br label %zend_jit_op_array_analyze2.exit

zend_jit_op_array_analyze2.exit:                  ; preds = %zend_jit_op_array_analyze2.exitthread-pre-split, %1
  %51 = phi i8 [ %.pr3, %zend_jit_op_array_analyze2.exitthread-pre-split ], [ %12, %1 ]
  tail call void @llvm.memset.p0.i64(ptr noundef nonnull align 8 dereferenceable(80) %11, i8 0, i64 80, i1 false)
  store i32 1, ptr %11, align 8
  %52 = icmp eq i8 %51, 2
  br i1 %52, label %53, label %86

53:                                               ; preds = %zend_jit_op_array_analyze2.exit
  %54 = load ptr, ptr getelementptr inbounds (%struct._zend_compiler_globals, ptr @compiler_globals, i64 0, i32 24), align 8
  %55 = load ptr, ptr %54, align 8
  call void @zend_build_cfg(ptr noundef nonnull getelementptr inbounds (%struct._zend_compiler_globals, ptr @compiler_globals, i64 0, i32 24), ptr noundef nonnull %0, i32 noundef 1262485504, ptr noundef nonnull %2) #32
  %56 = load i32, ptr %2, align 8
  %57 = icmp sgt i32 %56, 100000
  br i1 %57, label %zend_jit_build_cfg.exit, label %58

58:                                               ; preds = %53
  call void @zend_cfg_build_predecessors(ptr noundef nonnull getelementptr inbounds (%struct._zend_compiler_globals, ptr @compiler_globals, i64 0, i32 24), ptr noundef nonnull %2) #32
  call void @zend_cfg_compute_dominators_tree(ptr noundef nonnull %0, ptr noundef nonnull %2) #32
  call void @zend_cfg_identify_loops(ptr noundef nonnull %0, ptr noundef nonnull %2) #32
  %59 = getelementptr inbounds i8, ptr %2, i64 32
  %60 = load i32, ptr %59, align 8
  %61 = getelementptr inbounds i8, ptr %7, i64 40
  store i32 %60, ptr %61, align 8
  %62 = or i32 %60, 1
  br label %66

zend_jit_build_cfg.exit:                          ; preds = %53
  %63 = getelementptr inbounds i8, ptr %7, i64 40
  %64 = load i32, ptr %63, align 8
  %65 = or i32 %64, 1
  store i32 %65, ptr %63, align 8
  br label %66

66:                                               ; preds = %zend_jit_build_cfg.exit, %58
  %67 = phi i32 [ %65, %zend_jit_build_cfg.exit ], [ %62, %58 ]
  %68 = getelementptr inbounds i8, ptr %0, i64 8
  %69 = load ptr, ptr %68, align 8
  %.not56 = icmp eq ptr %69, null
  br i1 %.not56, label %70, label %72

70:                                               ; preds = %66
  %71 = getelementptr inbounds i8, ptr %7, i64 40
  store i32 %67, ptr %71, align 8
  br label %72

72:                                               ; preds = %70, %66
  %73 = load ptr, ptr getelementptr inbounds (%struct._zend_compiler_globals, ptr @compiler_globals, i64 0, i32 24), align 8
  %74 = getelementptr inbounds i8, ptr %73, i64 8
  %75 = load ptr, ptr %74, align 8
  %76 = icmp ugt ptr %55, %75
  %77 = icmp ule ptr %55, %73
  %78 = or i1 %77, %76
  br i1 %78, label %.lr.ph, label %._crit_edge

.lr.ph:                                           ; preds = %72, %.lr.ph
  %.05 = phi ptr [ %80, %.lr.ph ], [ %73, %72 ]
  %79 = getelementptr inbounds i8, ptr %.05, i64 16
  %80 = load ptr, ptr %79, align 8
  call void @_efree(ptr noundef nonnull %.05) #32
  store ptr %80, ptr getelementptr inbounds (%struct._zend_compiler_globals, ptr @compiler_globals, i64 0, i32 24), align 8
  %81 = getelementptr inbounds i8, ptr %80, i64 8
  %82 = load ptr, ptr %81, align 8
  %83 = icmp ugt ptr %55, %82
  %84 = icmp ule ptr %55, %80
  %85 = or i1 %84, %83
  br i1 %85, label %.lr.ph, label %._crit_edge

._crit_edge:                                      ; preds = %.lr.ph, %72
  %.0.lcssa = phi ptr [ %73, %72 ], [ %80, %.lr.ph ]
  store ptr %55, ptr %.0.lcssa, align 8
  br label %86

86:                                               ; preds = %zend_jit_op_array_analyze2.exit, %._crit_edge, %47, %50
  ret ptr %11
}